target datalayout = "e-m:e-p270:32:32-p271:32:32-p272:64:64-i64:64-i128:128-f80:128-n8:16:32:64-S128"
target triple = "x86_64-pc-linux-gnu"

%struct.bin_info_s = type { i64, i64, i32, i32, %struct.bitmap_info_s }
%struct.bitmap_info_s = type { i64, i64 }
%struct.malloc_mutex_s = type { %union.anon }
%union.anon = type { %struct.anon.1 }
%struct.anon.1 = type { %struct.mutex_prof_data_t, %struct.atomic_b_t, %union.pthread_mutex_t }
%struct.mutex_prof_data_t = type { %struct.nstime_t, %struct.nstime_t, i64, i64, i32, %struct.atomic_u32_t, i64, ptr, i64 }
%struct.nstime_t = type { i64 }
%struct.atomic_u32_t = type { i32 }
%struct.atomic_b_t = type { i8 }
%union.pthread_mutex_t = type { %struct.__pthread_mutex_s }
%struct.__pthread_mutex_s = type { i32, i32, i32, i32, i32, i16, i16, %struct.__pthread_internal_list }
%struct.__pthread_internal_list = type { ptr, ptr }
%struct.atomic_zd_t = type { i64 }
%struct.pa_central_s = type { %struct.hpa_central_s }
%struct.hpa_central_s = type { %struct.malloc_mutex_s, ptr, i64, ptr, %struct.hpa_hooks_s }
%struct.hpa_hooks_s = type { ptr, ptr, ptr, ptr, ptr, ptr, ptr }
%struct.div_info_s = type { i32 }
%struct.sc_data_s = type { i32, i32, i32, i32, i32, i32, i32, i64, i64, i32, i64, i64, i8, [232 x %struct.sc_s] }
%struct.sc_s = type { i32, i32, i32, i32, i8, i8, i32, i32 }

@je_opt_dirty_decay_ms = hidden global i64 10000, align 8
@je_opt_muzzy_decay_ms = hidden global i64 0, align 8
@je_bin_infos = external global [36 x %struct.bin_info_s], align 16
@dirty_decay_ms_default = internal global %struct.atomic_zd_t zeroinitializer, align 8
@muzzy_decay_ms_default = internal global %struct.atomic_zd_t zeroinitializer, align 8
@arena_pa_central_global = internal global %struct.pa_central_s zeroinitializer, align 8
@je_arena_binind_div_info = hidden global [36 x %struct.div_info_s] zeroinitializer, align 16
@je_arena_bin_offsets = hidden global [36 x i32] zeroinitializer, align 16
@je_bin_info_nbatched_sizes = external global i32, align 4
@je_hpa_hooks_default = external constant %struct.hpa_hooks_s, align 8

; Function Attrs: alwaysinline nounwind uwtable
define internal i32 @atomic_enum_to_builtin(i32 noundef %0) #4 {
  %2 = alloca i32, align 4
  %3 = alloca i32, align 4
  store i32 %0, ptr %3, align 4, !tbaa !17
  %4 = load i32, ptr %3, align 4, !tbaa !17
  switch i32 %4, label %10 [
    i32 0, label %5
    i32 1, label %6
    i32 2, label %7
    i32 3, label %8
    i32 4, label %9
  ]

5:                                                ; preds = %1
  store i32 0, ptr %2, align 4
  br label %12

6:                                                ; preds = %1
  store i32 2, ptr %2, align 4
  br label %12

7:                                                ; preds = %1
  store i32 3, ptr %2, align 4
  br label %12

8:                                                ; preds = %1
  store i32 4, ptr %2, align 4
  br label %12

9:                                                ; preds = %1
  store i32 5, ptr %2, align 4
  br label %12

10:                                               ; preds = %1
  br label %11

11:                                               ; preds = %10
  unreachable

12:                                               ; preds = %5, %6, %7, %8, %9
  %13 = load i32, ptr %2, align 4
  ret i32 %13
}

; Function Attrs: alwaysinline nounwind uwtable
define internal void @atomic_store_zd(ptr noundef %0, i64 noundef %1, i32 noundef %2) #4 {
  %4 = alloca ptr, align 8
  %5 = alloca i64, align 8
  %6 = alloca i32, align 4
  store ptr %0, ptr %4, align 8, !tbaa !120
  store i64 %1, ptr %5, align 8, !tbaa !21
  store i32 %2, ptr %6, align 4, !tbaa !17
  %7 = load ptr, ptr %4, align 8, !tbaa !120
  %8 = getelementptr inbounds nuw %struct.atomic_zd_t, ptr %7, i32 0, i32 0
  %9 = load i32, ptr %6, align 4, !tbaa !17
  %10 = call i32 @atomic_enum_to_builtin(i32 noundef %9)
  switch i32 %10, label %11 [
    i32 3, label %13
    i32 5, label %15
  ]

11:                                               ; preds = %3
  %12 = load i64, ptr %5, align 8
  store atomic i64 %12, ptr %8 monotonic, align 8
  br label %17

13:                                               ; preds = %3
  %14 = load i64, ptr %5, align 8
  store atomic i64 %14, ptr %8 release, align 8
  br label %17

15:                                               ; preds = %3
  %16 = load i64, ptr %5, align 8
  store atomic i64 %16, ptr %8 seq_cst, align 8
  br label %17

17:                                               ; preds = %15, %13, %11
  ret void
}

; Function Attrs: nounwind uwtable
define hidden zeroext i1 @je_arena_muzzy_decay_ms_default_set(i64 noundef %0) #0 {
  %2 = alloca i1, align 1
  %3 = alloca i64, align 8
  store i64 %0, ptr %3, align 8, !tbaa !21
  %4 = load i64, ptr %3, align 8, !tbaa !21
  %5 = call zeroext i1 @je_decay_ms_valid(i64 noundef %4)
  br i1 %5, label %7, label %6

6:                                                ; preds = %1
  store i1 true, ptr %2, align 1
  br label %9

7:                                                ; preds = %1
  %8 = load i64, ptr %3, align 8, !tbaa !21
  call void @atomic_store_zd(ptr noundef @muzzy_decay_ms_default, i64 noundef %8, i32 noundef 0)
  store i1 false, ptr %2, align 1
  br label %9

9:                                                ; preds = %7, %6
  %10 = load i1, ptr %2, align 1
  ret i1 %10
}

; Function Attrs: nounwind uwtable
define hidden zeroext i1 @je_arena_dirty_decay_ms_default_set(i64 noundef %0) #0 {
  %2 = alloca i1, align 1
  %3 = alloca i64, align 8
  store i64 %0, ptr %3, align 8, !tbaa !21
  %4 = load i64, ptr %3, align 8, !tbaa !21
  %5 = call zeroext i1 @je_decay_ms_valid(i64 noundef %4)
  br i1 %5, label %7, label %6

6:                                                ; preds = %1
  store i1 true, ptr %2, align 1
  br label %9

7:                                                ; preds = %1
  %8 = load i64, ptr %3, align 8, !tbaa !21
  call void @atomic_store_zd(ptr noundef @dirty_decay_ms_default, i64 noundef %8, i32 noundef 0)
  store i1 false, ptr %2, align 1
  br label %9

9:                                                ; preds = %7, %6
  %10 = load i1, ptr %2, align 1
  ret i1 %10
}

; Function Attrs: nounwind uwtable
define hidden zeroext i1 @je_arena_boot(ptr noundef %0, ptr noundef %1, i1 noundef zeroext %2) #0 {
  %4 = alloca ptr, align 8
  %5 = alloca ptr, align 8
  %6 = alloca i8, align 1
  %7 = alloca i32, align 4
  %8 = alloca ptr, align 8
  %9 = alloca i32, align 4
  %10 = alloca i32, align 4
  %11 = alloca i32, align 4
  store ptr %0, ptr %4, align 8, !tbaa !260
  store ptr %1, ptr %5, align 8, !tbaa !213
  %12 = zext i1 %2 to i8
  store i8 %12, ptr %6, align 1, !tbaa !23
  %13 = load i64, ptr @je_opt_dirty_decay_ms, align 8, !tbaa !21
  %14 = call zeroext i1 @je_arena_dirty_decay_ms_default_set(i64 noundef %13)
  %15 = load i64, ptr @je_opt_muzzy_decay_ms, align 8, !tbaa !21
  %16 = call zeroext i1 @je_arena_muzzy_decay_ms_default_set(i64 noundef %15)
  call void @llvm.lifetime.start.p0(i64 4, ptr %7) #12
  store i32 0, ptr %7, align 4, !tbaa !17
  br label %17

17:                                               ; preds = %44, %3
  %18 = load i32, ptr %7, align 4, !tbaa !17
  %19 = zext i32 %18 to i64
  %20 = icmp ult i64 %19, 36
  br i1 %20, label %22, label %21

21:                                               ; preds = %17
  call void @llvm.lifetime.end.p0(i64 4, ptr %7) #12
  br label %47

22:                                               ; preds = %17
  call void @llvm.lifetime.start.p0(i64 8, ptr %8) #12
  %23 = load ptr, ptr %4, align 8, !tbaa !260
  %24 = getelementptr inbounds nuw %struct.sc_data_s, ptr %23, i32 0, i32 13
  %25 = load i32, ptr %7, align 4, !tbaa !17
  %26 = zext i32 %25 to i64
  %27 = getelementptr inbounds nuw [232 x %struct.sc_s], ptr %24, i64 0, i64 %26
  store ptr %27, ptr %8, align 8, !tbaa !262
  %28 = load i32, ptr %7, align 4, !tbaa !17
  %29 = zext i32 %28 to i64
  %30 = getelementptr inbounds nuw [36 x %struct.div_info_s], ptr @je_arena_binind_div_info, i64 0, i64 %29
  %31 = load ptr, ptr %8, align 8, !tbaa !262
  %32 = getelementptr inbounds nuw %struct.sc_s, ptr %31, i32 0, i32 1
  %33 = load i32, ptr %32, align 4, !tbaa !264
  %34 = shl i32 1, %33
  %35 = load ptr, ptr %8, align 8, !tbaa !262
  %36 = getelementptr inbounds nuw %struct.sc_s, ptr %35, i32 0, i32 3
  %37 = load i32, ptr %36, align 4, !tbaa !266
  %38 = load ptr, ptr %8, align 8, !tbaa !262
  %39 = getelementptr inbounds nuw %struct.sc_s, ptr %38, i32 0, i32 2
  %40 = load i32, ptr %39, align 4, !tbaa !267
  %41 = shl i32 %37, %40
  %42 = add i32 %34, %41
  %43 = zext i32 %42 to i64
  call void @je_div_init(ptr noundef %30, i64 noundef %43)
  call void @llvm.lifetime.end.p0(i64 8, ptr %8) #12
  br label %44

44:                                               ; preds = %22
  %45 = load i32, ptr %7, align 4, !tbaa !17
  %46 = add i32 %45, 1
  store i32 %46, ptr %7, align 4, !tbaa !17
  br label %17, !llvm.loop !268

47:                                               ; preds = %21
  call void @llvm.lifetime.start.p0(i64 4, ptr %9) #12
  store i32 79104, ptr %9, align 4, !tbaa !17
  call void @llvm.lifetime.start.p0(i64 4, ptr %10) #12
  store i32 0, ptr %10, align 4, !tbaa !17
  br label %48

48:                                               ; preds = %72, %47
  %49 = load i32, ptr %10, align 4, !tbaa !17
  %50 = zext i32 %49 to i64
  %51 = icmp ult i64 %50, 36
  br i1 %51, label %53, label %52

52:                                               ; preds = %48
  call void @llvm.lifetime.end.p0(i64 4, ptr %10) #12
  br label %75

53:                                               ; preds = %48
  %54 = load i32, ptr %9, align 4, !tbaa !17
  %55 = load i32, ptr %10, align 4, !tbaa !17
  %56 = zext i32 %55 to i64
  %57 = getelementptr inbounds nuw [36 x i32], ptr @je_arena_bin_offsets, i64 0, i64 %56
  store i32 %54, ptr %57, align 4, !tbaa !17
  call void @llvm.lifetime.start.p0(i64 4, ptr %11) #12
  %58 = load i32, ptr %10, align 4, !tbaa !17
  %59 = load i32, ptr @je_bin_info_nbatched_sizes, align 4, !tbaa !17
  %60 = icmp ult i32 %58, %59
  %61 = select i1 %60, i64 648, i64 256
  %62 = trunc i64 %61 to i32
  store i32 %62, ptr %11, align 4, !tbaa !17
  %63 = load i32, ptr %10, align 4, !tbaa !17
  %64 = zext i32 %63 to i64
  %65 = getelementptr inbounds nuw [36 x %struct.bin_info_s], ptr @je_bin_infos, i64 0, i64 %64
  %66 = getelementptr inbounds nuw %struct.bin_info_s, ptr %65, i32 0, i32 3
  %67 = load i32, ptr %66, align 4, !tbaa !121
  %68 = load i32, ptr %11, align 4, !tbaa !17
  %69 = mul i32 %67, %68
  %70 = load i32, ptr %9, align 4, !tbaa !17
  %71 = add i32 %70, %69
  store i32 %71, ptr %9, align 4, !tbaa !17
  call void @llvm.lifetime.end.p0(i64 4, ptr %11) #12
  br label %72

72:                                               ; preds = %53
  %73 = load i32, ptr %10, align 4, !tbaa !17
  %74 = add i32 %73, 1
  store i32 %74, ptr %10, align 4, !tbaa !17
  br label %48, !llvm.loop !269

75:                                               ; preds = %52
  %76 = load ptr, ptr %5, align 8, !tbaa !213
  %77 = load i8, ptr %6, align 1, !tbaa !23, !range !25, !noundef !26
  %78 = trunc i8 %77 to i1
  %79 = call zeroext i1 @je_pa_central_init(ptr noundef @arena_pa_central_global, ptr noundef %76, i1 noundef zeroext %78, ptr noundef @je_hpa_hooks_default)
  call void @llvm.lifetime.end.p0(i64 4, ptr %9) #12
  ret i1 %79
}